target datalayout = "e-m:e-p270:32:32-p271:32:32-p272:64:64-i64:64-i128:128-f80:128-n8:16:32:64-S128"
target triple = "x86_64-pc-linux-gnu"

%struct.H5O_msg_class_t = type { i32, ptr, i64, i32, ptr, ptr, ptr, ptr, ptr, ptr, ptr, ptr, ptr, ptr, ptr, ptr, ptr, ptr, ptr, ptr }
%struct.H5O_t = type { %struct.H5C_cache_entry_t, i64, i64, i8, i64, i8, i32, i8, i8, i64, i64, i64, i64, i32, i32, i64, i64, ptr, i64, i64, i64, i64, ptr, i8, ptr }
%struct.H5C_cache_entry_t = type { ptr, i64, i64, ptr, i8, ptr, i8, i8, i8, i8, i32, i8, i8, i8, i8, i8, i32, ptr, i32, i32, i32, i32, i32, i8, i8, ptr, ptr, ptr, ptr, ptr, ptr, i8, i32, i8, i64, ptr, i64, i64, i32, i8, i32, i32, i8, ptr, ptr, ptr }

@H5O_init_g = external global i8, align 1
@H5_libterm_g = external global i8, align 1
@.str = private unnamed_addr constant [104 x i8] c"generated/home/dtcxzyw/WorkSpace/Projects/compilers/llvm-opt-benchmark/bench/hdf5/hdf5/src/H5Omessage.c\00", align 1
@H5E_FUNC_g = external global i64, align 8
@H5E_CANTINIT_g = external global i64, align 8
@.str.1 = private unnamed_addr constant [32 x i8] c"interface initialization failed\00", align 1
@H5E_OHDR_g = external global i64, align 8
@H5O_msg_class_g = external constant [26 x ptr], align 16
@H5E_CANTCOUNT_g = external global i64, align 8
@.str.32 = private unnamed_addr constant [36 x i8] c"unable to determine size of message\00", align 1
@__func__.H5O_msg_size_oh = private unnamed_addr constant [16 x i8] c"H5O_msg_size_oh\00", align 1

; Function Attrs: nounwind uwtable
define i64 @H5O_msg_size_oh(ptr noundef %0, ptr noundef %1, i32 noundef %2, ptr noundef %3, i64 noundef %4) #0 {
  %6 = alloca ptr, align 8
  %7 = alloca ptr, align 8
  %8 = alloca i32, align 4
  %9 = alloca ptr, align 8
  %10 = alloca i64, align 8
  %11 = alloca ptr, align 8
  %12 = alloca i64, align 8
  %13 = alloca i8, align 1
  store ptr %0, ptr %6, align 8, !tbaa !22
  store ptr %1, ptr %7, align 8, !tbaa !11
  store i32 %2, ptr %8, align 4, !tbaa !8
  store ptr %3, ptr %9, align 8, !tbaa !10
  store i64 %4, ptr %10, align 8, !tbaa !17
  call void @llvm.lifetime.start.p0(i64 8, ptr %11) #5
  call void @llvm.lifetime.start.p0(i64 8, ptr %12) #5
  store i64 0, ptr %12, align 8, !tbaa !17
  call void @llvm.lifetime.start.p0(i64 1, ptr %13) #5
  store i8 0, ptr %13, align 1, !tbaa !13
  %14 = load i8, ptr @H5O_init_g, align 1, !tbaa !13, !range !15, !noundef !16
  %15 = trunc i8 %14 to i1
  br i1 %15, label %20, label %16

16:                                               ; preds = %5
  %17 = load i8, ptr @H5_libterm_g, align 1, !tbaa !13, !range !15, !noundef !16
  %18 = trunc i8 %17 to i1
  %19 = xor i1 %18, true
  br label %20

20:                                               ; preds = %16, %5
  %21 = phi i1 [ false, %5 ], [ %19, %16 ]
  %22 = xor i1 %21, true
  %23 = xor i1 %22, true
  %24 = zext i1 %23 to i32
  %25 = sext i32 %24 to i64
  %26 = call i64 @llvm.expect.i64(i64 %25, i64 0)
  %27 = icmp ne i64 %26, 0
  br i1 %27, label %28, label %51

28:                                               ; preds = %20
  store i8 1, ptr @H5O_init_g, align 1, !tbaa !13
  %29 = call i32 @H5O__init_package()
  %30 = icmp slt i32 %29, 0
  br i1 %30, label %31, label %50

31:                                               ; preds = %28
  store i8 0, ptr @H5O_init_g, align 1, !tbaa !13
  br label %32

32:                                               ; preds = %31
  br label %33

33:                                               ; preds = %32
  br label %34

34:                                               ; preds = %33
  %35 = load i64, ptr @H5E_FUNC_g, align 8, !tbaa !17
  %36 = load i64, ptr @H5E_CANTINIT_g, align 8, !tbaa !17
  %37 = call i32 (ptr, ptr, i32, i64, i64, ptr, ...) @H5E_printf_stack(ptr noundef @.str, ptr noundef @__func__.H5O_msg_size_oh, i32 noundef 1314, i64 noundef %35, i64 noundef %36, ptr noundef @.str.1)
  br label %38

38:                                               ; preds = %34
  br label %39

39:                                               ; preds = %38
  store i8 1, ptr %13, align 1, !tbaa !13
  %40 = load i8, ptr %13, align 1, !tbaa !13, !range !15, !noundef !16
  %41 = trunc i8 %40 to i1
  %42 = zext i1 %41 to i8
  store i8 %42, ptr %13, align 1, !tbaa !13
  br label %43

43:                                               ; preds = %39
  br label %44

44:                                               ; preds = %43
  br label %45

45:                                               ; preds = %44
  store i64 0, ptr %12, align 8, !tbaa !17
  br label %135

46:                                               ; No predecessors!
  br label %47

47:                                               ; preds = %46
  br label %48

48:                                               ; preds = %47
  br label %49

49:                                               ; preds = %48
  br label %50

50:                                               ; preds = %49, %28
  br label %51

51:                                               ; preds = %50, %20
  %52 = load i8, ptr @H5O_init_g, align 1, !tbaa !13, !range !15, !noundef !16
  %53 = trunc i8 %52 to i1
  br i1 %53, label %58, label %54

54:                                               ; preds = %51
  %55 = load i8, ptr @H5_libterm_g, align 1, !tbaa !13, !range !15, !noundef !16
  %56 = trunc i8 %55 to i1
  %57 = xor i1 %56, true
  br label %58

58:                                               ; preds = %54, %51
  %59 = phi i1 [ true, %51 ], [ %57, %54 ]
  %60 = xor i1 %59, true
  %61 = xor i1 %60, true
  %62 = zext i1 %61 to i32
  %63 = sext i32 %62 to i64
  %64 = call i64 @llvm.expect.i64(i64 %63, i64 1)
  %65 = icmp ne i64 %64, 0
  br i1 %65, label %66, label %136

66:                                               ; preds = %58
  %67 = load i32, ptr %8, align 4, !tbaa !8
  %68 = zext i32 %67 to i64
  %69 = getelementptr inbounds nuw [26 x ptr], ptr @H5O_msg_class_g, i64 0, i64 %68
  %70 = load ptr, ptr %69, align 8, !tbaa !23
  store ptr %70, ptr %11, align 8, !tbaa !23
  %71 = load ptr, ptr %11, align 8, !tbaa !23
  %72 = getelementptr inbounds nuw %struct.H5O_msg_class_t, ptr %71, i32 0, i32 7
  %73 = load ptr, ptr %72, align 8, !tbaa !89
  %74 = load ptr, ptr %6, align 8, !tbaa !22
  %75 = load ptr, ptr %9, align 8, !tbaa !10
  %76 = call i64 %73(ptr noundef %74, i1 noundef zeroext false, ptr noundef %75)
  store i64 %76, ptr %12, align 8, !tbaa !17
  %77 = icmp eq i64 %76, 0
  br i1 %77, label %78, label %97

78:                                               ; preds = %66
  br label %79

79:                                               ; preds = %78
  br label %80

80:                                               ; preds = %79
  br label %81

81:                                               ; preds = %80
  %82 = load i64, ptr @H5E_OHDR_g, align 8, !tbaa !17
  %83 = load i64, ptr @H5E_CANTCOUNT_g, align 8, !tbaa !17
  %84 = call i32 (ptr, ptr, i32, i64, i64, ptr, ...) @H5E_printf_stack(ptr noundef @.str, ptr noundef @__func__.H5O_msg_size_oh, i32 noundef 1326, i64 noundef %82, i64 noundef %83, ptr noundef @.str.32)
  br label %85

85:                                               ; preds = %81
  br label %86

86:                                               ; preds = %85
  store i8 1, ptr %13, align 1, !tbaa !13
  %87 = load i8, ptr %13, align 1, !tbaa !13, !range !15, !noundef !16
  %88 = trunc i8 %87 to i1
  %89 = zext i1 %88 to i8
  store i8 %89, ptr %13, align 1, !tbaa !13
  br label %90

90:                                               ; preds = %86
  br label %91

91:                                               ; preds = %90
  br label %92

92:                                               ; preds = %91
  store i64 0, ptr %12, align 8, !tbaa !17
  br label %135

93:                                               ; No predecessors!
  br label %94

94:                                               ; preds = %93
  br label %95

95:                                               ; preds = %94
  br label %96

96:                                               ; preds = %95
  br label %97

97:                                               ; preds = %96, %66
  %98 = load i64, ptr %10, align 8, !tbaa !17
  %99 = load i64, ptr %12, align 8, !tbaa !17
  %100 = add i64 %99, %98
  store i64 %100, ptr %12, align 8, !tbaa !17
  %101 = load ptr, ptr %7, align 8, !tbaa !11
  %102 = getelementptr inbounds nuw %struct.H5O_t, ptr %101, i32 0, i32 7
  %103 = load i8, ptr %102, align 8, !tbaa !92
  %104 = zext i8 %103 to i32
  %105 = icmp eq i32 %104, 1
  br i1 %105, label %106, label %111

106:                                              ; preds = %97
  %107 = load i64, ptr %12, align 8, !tbaa !17
  %108 = add i64 %107, 7
  %109 = udiv i64 %108, 8
  %110 = mul i64 8, %109
  br label %113

111:                                              ; preds = %97
  %112 = load i64, ptr %12, align 8, !tbaa !17
  br label %113

113:                                              ; preds = %111, %106
  %114 = phi i64 [ %110, %106 ], [ %112, %111 ]
  store i64 %114, ptr %12, align 8, !tbaa !17
  %115 = load ptr, ptr %7, align 8, !tbaa !11
  %116 = getelementptr inbounds nuw %struct.H5O_t, ptr %115, i32 0, i32 7
  %117 = load i8, ptr %116, align 8, !tbaa !92
  %118 = zext i8 %117 to i32
  %119 = icmp eq i32 %118, 1
  br i1 %119, label %120, label %121

120:                                              ; preds = %113
  br label %130

121:                                              ; preds = %113
  %122 = load ptr, ptr %7, align 8, !tbaa !11
  %123 = getelementptr inbounds nuw %struct.H5O_t, ptr %122, i32 0, i32 8
  %124 = load i8, ptr %123, align 1, !tbaa !93
  %125 = zext i8 %124 to i32
  %126 = and i32 %125, 4
  %127 = icmp ne i32 %126, 0
  %128 = select i1 %127, i32 2, i32 0
  %129 = add nsw i32 4, %128
  br label %130

130:                                              ; preds = %121, %120
  %131 = phi i32 [ 8, %120 ], [ %129, %121 ]
  %132 = zext i32 %131 to i64
  %133 = load i64, ptr %12, align 8, !tbaa !17
  %134 = add i64 %133, %132
  store i64 %134, ptr %12, align 8, !tbaa !17
  br label %135

135:                                              ; preds = %130, %92, %45
  br label %136

136:                                              ; preds = %135, %58
  %137 = load i64, ptr %12, align 8, !tbaa !17
  call void @llvm.lifetime.end.p0(i64 1, ptr %13) #5
  call void @llvm.lifetime.end.p0(i64 8, ptr %12) #5
  call void @llvm.lifetime.end.p0(i64 8, ptr %11) #5
  ret i64 %137
}