; Function Attrs: nounwind uwtable
define i64 @H5O_msg_size_oh(ptr noundef %0, ptr noundef readonly captures(none) %1, i32 noundef %2, ptr noundef %3, i64 noundef %4) local_unnamed_addr #0 {
  %6 = load i8, ptr @H5O_init_g, align 1, !tbaa !3, !range !7, !noundef !8
  %7 = trunc nuw i8 %6 to i1
  %8 = load i8, ptr @H5_libterm_g, align 1, !range !7
  %9 = trunc nuw i8 %8 to i1
  %10 = select i1 %7, i1 true, i1 %9
  br i1 %10, label %18, label %11, !prof !9

11:                                               ; preds = %5
  store i8 1, ptr @H5O_init_g, align 1, !tbaa !3
  %12 = tail call i32 @H5O__init_package() #7
  %13 = icmp slt i32 %12, 0
  br i1 %13, label %14, label %._crit_edge

._crit_edge:                                      ; preds = %11
  %.pre = load i8, ptr @H5O_init_g, align 1, !tbaa !3, !range !7
  %.pre15 = load i8, ptr @H5_libterm_g, align 1, !range !7
  %.pre16 = trunc nuw i8 %.pre to i1
  %.pre17 = trunc nuw i8 %.pre15 to i1
  br label %18

14:                                               ; preds = %11
  store i8 0, ptr @H5O_init_g, align 1, !tbaa !3
  %15 = load i64, ptr @H5E_FUNC_g, align 8, !tbaa !10
  %16 = load i64, ptr @H5E_CANTINIT_g, align 8, !tbaa !10
  %17 = tail call i32 (ptr, ptr, i32, i64, i64, ptr, ...) @H5E_printf_stack(ptr noundef nonnull @.str, ptr noundef nonnull @__func__.H5O_msg_size_oh, i32 noundef 1314, i64 noundef %15, i64 noundef %16, ptr noundef nonnull @.str.1) #7
  br label %51

18:                                               ; preds = %._crit_edge, %5
  %.pre-phi18 = phi i1 [ %.pre17, %._crit_edge ], [ %9, %5 ]
  %.pre-phi = phi i1 [ %.pre16, %._crit_edge ], [ %7, %5 ]
  %19 = xor i1 %.pre-phi18, true
  %20 = select i1 %.pre-phi, i1 true, i1 %19
  br i1 %20, label %21, label %51, !prof !9

21:                                               ; preds = %18
  %22 = zext i32 %2 to i64
  %23 = getelementptr inbounds nuw [26 x ptr], ptr @H5O_msg_class_g, i64 0, i64 %22
  %24 = load ptr, ptr %23, align 8, !tbaa !16
  %25 = getelementptr inbounds nuw i8, ptr %24, i64 56
  %26 = load ptr, ptr %25, align 8, !tbaa !82
  %27 = tail call i64 %26(ptr noundef %0, i1 noundef zeroext false, ptr noundef %3) #7
  %28 = icmp eq i64 %27, 0
  br i1 %28, label %29, label %33

29:                                               ; preds = %21
  %30 = load i64, ptr @H5E_OHDR_g, align 8, !tbaa !10
  %31 = load i64, ptr @H5E_CANTCOUNT_g, align 8, !tbaa !10
  %32 = tail call i32 (ptr, ptr, i32, i64, i64, ptr, ...) @H5E_printf_stack(ptr noundef nonnull @.str, ptr noundef nonnull @__func__.H5O_msg_size_oh, i32 noundef 1326, i64 noundef %30, i64 noundef %31, ptr noundef nonnull @.str.32) #7
  br label %51

33:                                               ; preds = %21
  %34 = add i64 %27, %4
  %35 = getelementptr inbounds nuw i8, ptr %1, i64 288
  %36 = load i8, ptr %35, align 8, !tbaa !83
  %37 = icmp eq i8 %36, 1
  %38 = add i64 %34, 7
  %39 = and i64 %38, -8
  %40 = select i1 %37, i64 %39, i64 %34
  br i1 %37, label %48, label %41

41:                                               ; preds = %33
  %42 = getelementptr inbounds nuw i8, ptr %1, i64 289
  %43 = load i8, ptr %42, align 1, !tbaa !84
  %44 = lshr i8 %43, 1
  %45 = and i8 %44, 2
  %46 = or disjoint i8 %45, 4
  %47 = zext nneg i8 %46 to i64
  br label %48

48:                                               ; preds = %33, %41
  %49 = phi i64 [ %47, %41 ], [ 8, %33 ]
  %50 = add i64 %49, %40
  br label %51

51:                                               ; preds = %14, %29, %48, %18
  %.0 = phi i64 [ 0, %14 ], [ 0, %29 ], [ %50, %48 ], [ 0, %18 ]
  ret i64 %.0
}